; Function Attrs: nounwind uwtable
define internal fastcc range(i32 -1, 2) i32 @check_ans(ptr noundef %0, ptr noundef %1) unnamed_addr #0 {
  %3 = tail call ptr @N_VClone(ptr noundef %0) #9
  %4 = tail call ptr @N_VClone(ptr noundef %0) #9
  %5 = load ptr, ptr %3, align 8, !tbaa !11
  %6 = getelementptr inbounds nuw i8, ptr %5, i64 16
  %7 = load ptr, ptr %6, align 8, !tbaa !14
  store double 0x3E6BF64D19675E2C, ptr %7, align 8, !tbaa !19
  %8 = getelementptr inbounds nuw i8, ptr %7, i64 8
  store double 0x3D4D5205EFF51F97, ptr %8, align 8, !tbaa !19
  %9 = getelementptr inbounds nuw i8, ptr %7, i64 16
  store double 0x3FEFFFFFE409ABA4, ptr %9, align 8, !tbaa !19
  tail call void @N_VAbs(ptr noundef nonnull %3, ptr noundef %4) #9
  tail call void @N_VLinearSum(double noundef 1.000000e-04, ptr noundef %4, double noundef 1.000000e+01, ptr noundef %1, ptr noundef %4) #9
  %10 = tail call double @N_VMin(ptr noundef %4) #9
  %11 = fcmp ugt double %10, 0.000000e+00
  br i1 %11, label %15, label %12

12:                                               ; preds = %2
  %13 = load ptr, ptr @stderr, align 8, !tbaa !4
  %14 = tail call i64 @fwrite(ptr nonnull @.str.32, i64 46, i64 1, ptr %13) #11
  br label %23

15:                                               ; preds = %2
  tail call void @N_VInv(ptr noundef %4, ptr noundef %4) #9
  tail call void @N_VLinearSum(double noundef 1.000000e+00, ptr noundef %0, double noundef -1.000000e+00, ptr noundef nonnull %3, ptr noundef nonnull %3) #9
  %16 = tail call double @N_VWrmsNorm(ptr noundef nonnull %3, ptr noundef %4) #9
  %17 = fcmp uge double %16, 1.000000e+00
  %18 = zext i1 %17 to i32
  br i1 %17, label %19, label %22

19:                                               ; preds = %15
  %20 = load ptr, ptr @stdout, align 8, !tbaa !4
  %21 = tail call i32 (ptr, ptr, ...) @fprintf(ptr noundef %20, ptr noundef nonnull @.str.33, double noundef %16) #9
  br label %22

22:                                               ; preds = %19, %15
  tail call void @N_VDestroy(ptr noundef nonnull %3) #9
  tail call void @N_VDestroy(ptr noundef %4) #9
  br label %23

23:                                               ; preds = %22, %12
  %.0 = phi i32 [ -1, %12 ], [ %18, %22 ]
  ret i32 %.0
}